; Function Attrs: mustprogress nofree norecurse nosync nounwind willreturn memory(read, inaccessiblemem: none) uwtable
define hidden ptr @ssl_read_buffer(ptr noundef readonly captures(none) %0) local_unnamed_addr #0 {
  %2 = getelementptr inbounds nuw i8, ptr %0, i64 80
  %3 = load ptr, ptr %2, align 8, !tbaa !6
  %4 = getelementptr inbounds nuw i8, ptr %3, i64 88
  %5 = load ptr, ptr %4, align 8, !tbaa !35
  %6 = getelementptr inbounds nuw i8, ptr %3, i64 96
  %7 = load i16, ptr %6, align 8, !tbaa !49
  %8 = zext i16 %7 to i64
  %9 = getelementptr inbounds nuw i8, ptr %5, i64 %8
  ret ptr %9
}